; Function Attrs: mustprogress uwtable
define void @_ZN7rocksdb25ConcurrentTaskLimiterImplC2ERKNSt7__cxx1112basic_stringIcSt11char_traitsIcESaIcEEEi(ptr noundef nonnull align 8 dereferenceable(48) %this, ptr noundef nonnull align 8 dereferenceable(32) %name, i32 noundef %max_outstanding_task) unnamed_addr #0 align 2 personality ptr @__gxx_personality_v0 {
entry:
  store ptr getelementptr inbounds ({ [9 x ptr] }, ptr @_ZTVN7rocksdb25ConcurrentTaskLimiterImplE, i64 0, i32 0, i64 2), ptr %this, align 8
  %name_ = getelementptr inbounds i8, ptr %this, i64 8
  tail call void @_ZNSt7__cxx1112basic_stringIcSt11char_traitsIcESaIcEEC1ERKS4_(ptr noundef nonnull align 8 dereferenceable(32) %name_, ptr noundef nonnull align 8 dereferenceable(32) %name)
  %max_outstanding_tasks_ = getelementptr inbounds i8, ptr %this, i64 40
  store i32 %max_outstanding_task, ptr %max_outstanding_tasks_, align 8
  %outstanding_tasks_ = getelementptr inbounds i8, ptr %this, i64 44
  store i32 0, ptr %outstanding_tasks_, align 4
  ret void
}